target datalayout = "e-m:e-p270:32:32-p271:32:32-p272:64:64-i64:64-i128:128-f80:128-n8:16:32:64-S128"
target triple = "x86_64-pc-linux-gnu"

%struct.ossl_passphrase_data_st = type { i32, %union.anon, i8, ptr, i64 }
%union.anon = type { %struct.anon }
%struct.anon = type { ptr, i64 }
%struct.ossl_store_ctx_st = type { ptr, ptr, ptr, ptr, ptr, i32, ptr, i32, i32, ptr, %struct.ossl_passphrase_data_st }
%struct.ossl_store_loader_st = type { ptr, ptr, ptr, ptr, ptr, ptr, ptr, ptr, ptr, ptr, ptr, ptr, ptr, i32, ptr, ptr, %struct.CRYPTO_REF_COUNT, ptr, ptr, ptr, ptr, ptr, ptr, ptr, ptr, ptr, ptr }
%struct.CRYPTO_REF_COUNT = type { i32 }
%struct.ossl_load_result_data_st = type { ptr, ptr }
%struct.anon.2 = type { ptr, ptr }
%struct.ossl_store_info_st = type { i32, %union.anon.3 }
%union.anon.3 = type { %struct.anon.4 }
%struct.anon.4 = type { ptr, ptr }

; Function Attrs: nounwind uwtable
define i32 @OSSL_STORE_INFO_get_type(ptr noundef %0) #0 {
  %2 = alloca ptr, align 8
  store ptr %0, ptr %2, align 8, !tbaa !77
  %3 = load ptr, ptr %2, align 8, !tbaa !77
  %4 = getelementptr inbounds nuw %struct.ossl_store_info_st, ptr %3, i32 0, i32 0
  %5 = load i32, ptr %4, align 8, !tbaa !88
  ret i32 %5
}

; Function Attrs: inlinehint nounwind uwtable
define internal ptr @sk_OSSL_STORE_INFO_shift(ptr noundef %0) #7 {
  %2 = alloca ptr, align 8
  store ptr %0, ptr %2, align 8, !tbaa !87
  %3 = load ptr, ptr %2, align 8, !tbaa !87
  %4 = call ptr @OPENSSL_sk_shift(ptr noundef %3)
  ret ptr %4
}

; Function Attrs: inlinehint nounwind uwtable
define internal void @sk_OSSL_STORE_INFO_free(ptr noundef %0) #7 {
  %2 = alloca ptr, align 8
  store ptr %0, ptr %2, align 8, !tbaa !87
  %3 = load ptr, ptr %2, align 8, !tbaa !87
  call void @OPENSSL_sk_free(ptr noundef %3)
  ret void
}

; Function Attrs: inlinehint nounwind uwtable
define internal i32 @sk_OSSL_STORE_INFO_num(ptr noundef %0) #7 {
  %2 = alloca ptr, align 8
  store ptr %0, ptr %2, align 8, !tbaa !87
  %3 = load ptr, ptr %2, align 8, !tbaa !87
  %4 = call i32 @OPENSSL_sk_num(ptr noundef %3)
  ret i32 %4
}

; Function Attrs: nounwind uwtable
define i32 @OSSL_STORE_eof(ptr noundef %0) #0 {
  %2 = alloca ptr, align 8
  %3 = alloca i32, align 4
  store ptr %0, ptr %2, align 8, !tbaa !19
  call void @llvm.lifetime.start.p0(i64 4, ptr %3) #8
  store i32 1, ptr %3, align 4, !tbaa !21
  %4 = load ptr, ptr %2, align 8, !tbaa !19
  %5 = getelementptr inbounds nuw %struct.ossl_store_ctx_st, ptr %4, i32 0, i32 1
  %6 = load ptr, ptr %5, align 8, !tbaa !42
  %7 = icmp ne ptr %6, null
  br i1 %7, label %8, label %18

8:                                                ; preds = %1
  %9 = load ptr, ptr %2, align 8, !tbaa !19
  %10 = getelementptr inbounds nuw %struct.ossl_store_ctx_st, ptr %9, i32 0, i32 0
  %11 = load ptr, ptr %10, align 8, !tbaa !43
  %12 = getelementptr inbounds nuw %struct.ossl_store_loader_st, ptr %11, i32 0, i32 22
  %13 = load ptr, ptr %12, align 8, !tbaa !85
  %14 = load ptr, ptr %2, align 8, !tbaa !19
  %15 = getelementptr inbounds nuw %struct.ossl_store_ctx_st, ptr %14, i32 0, i32 2
  %16 = load ptr, ptr %15, align 8, !tbaa !44
  %17 = call i32 %13(ptr noundef %16)
  store i32 %17, ptr %3, align 4, !tbaa !21
  br label %18

18:                                               ; preds = %8, %1
  %19 = load ptr, ptr %2, align 8, !tbaa !19
  %20 = getelementptr inbounds nuw %struct.ossl_store_ctx_st, ptr %19, i32 0, i32 1
  %21 = load ptr, ptr %20, align 8, !tbaa !42
  %22 = icmp eq ptr %21, null
  br i1 %22, label %23, label %33

23:                                               ; preds = %18
  %24 = load ptr, ptr %2, align 8, !tbaa !19
  %25 = getelementptr inbounds nuw %struct.ossl_store_ctx_st, ptr %24, i32 0, i32 0
  %26 = load ptr, ptr %25, align 8, !tbaa !43
  %27 = getelementptr inbounds nuw %struct.ossl_store_loader_st, ptr %26, i32 0, i32 8
  %28 = load ptr, ptr %27, align 8, !tbaa !86
  %29 = load ptr, ptr %2, align 8, !tbaa !19
  %30 = getelementptr inbounds nuw %struct.ossl_store_ctx_st, ptr %29, i32 0, i32 2
  %31 = load ptr, ptr %30, align 8, !tbaa !44
  %32 = call i32 %28(ptr noundef %31)
  store i32 %32, ptr %3, align 4, !tbaa !21
  br label %33

33:                                               ; preds = %23, %18
  %34 = load i32, ptr %3, align 4, !tbaa !21
  %35 = icmp ne i32 %34, 0
  %36 = zext i1 %35 to i32
  call void @llvm.lifetime.end.p0(i64 4, ptr %3) #8
  ret i32 %36
}

; Function Attrs: nounwind uwtable
define ptr @OSSL_STORE_load(ptr noundef %0) #0 {
  %2 = alloca ptr, align 8
  %3 = alloca ptr, align 8
  %4 = alloca ptr, align 8
  %5 = alloca i32, align 4
  %6 = alloca %struct.ossl_load_result_data_st, align 8
  %7 = alloca i32, align 4
  store ptr %0, ptr %3, align 8, !tbaa !19
  call void @llvm.lifetime.start.p0(i64 8, ptr %4) #8
  store ptr null, ptr %4, align 8, !tbaa !77
  %8 = load ptr, ptr %3, align 8, !tbaa !19
  %9 = getelementptr inbounds nuw %struct.ossl_store_ctx_st, ptr %8, i32 0, i32 7
  store i32 1, ptr %9, align 8, !tbaa !57
  br label %10

10:                                               ; preds = %155, %125, %1
  %11 = load ptr, ptr %3, align 8, !tbaa !19
  %12 = call i32 @OSSL_STORE_eof(ptr noundef %11)
  %13 = icmp ne i32 %12, 0
  br i1 %13, label %14, label %15

14:                                               ; preds = %10
  store ptr null, ptr %2, align 8
  store i32 1, ptr %5, align 4
  br label %164

15:                                               ; preds = %10
  %16 = load ptr, ptr %3, align 8, !tbaa !19
  %17 = getelementptr inbounds nuw %struct.ossl_store_ctx_st, ptr %16, i32 0, i32 0
  %18 = load ptr, ptr %17, align 8, !tbaa !43
  %19 = icmp ne ptr %18, null
  br i1 %19, label %20, label %21

20:                                               ; preds = %15
  br label %21

21:                                               ; preds = %20, %15
  %22 = load ptr, ptr %3, align 8, !tbaa !19
  %23 = getelementptr inbounds nuw %struct.ossl_store_ctx_st, ptr %22, i32 0, i32 9
  %24 = load ptr, ptr %23, align 8, !tbaa !51
  %25 = icmp ne ptr %24, null
  br i1 %25, label %26, label %38

26:                                               ; preds = %21
  %27 = load ptr, ptr %3, align 8, !tbaa !19
  %28 = getelementptr inbounds nuw %struct.ossl_store_ctx_st, ptr %27, i32 0, i32 9
  %29 = load ptr, ptr %28, align 8, !tbaa !51
  %30 = call i32 @sk_OSSL_STORE_INFO_num(ptr noundef %29)
  %31 = icmp eq i32 %30, 0
  br i1 %31, label %32, label %38

32:                                               ; preds = %26
  %33 = load ptr, ptr %3, align 8, !tbaa !19
  %34 = getelementptr inbounds nuw %struct.ossl_store_ctx_st, ptr %33, i32 0, i32 9
  %35 = load ptr, ptr %34, align 8, !tbaa !51
  call void @sk_OSSL_STORE_INFO_free(ptr noundef %35)
  %36 = load ptr, ptr %3, align 8, !tbaa !19
  %37 = getelementptr inbounds nuw %struct.ossl_store_ctx_st, ptr %36, i32 0, i32 9
  store ptr null, ptr %37, align 8, !tbaa !51
  br label %38

38:                                               ; preds = %32, %26, %21
  %39 = load ptr, ptr %3, align 8, !tbaa !19
  %40 = getelementptr inbounds nuw %struct.ossl_store_ctx_st, ptr %39, i32 0, i32 9
  %41 = load ptr, ptr %40, align 8, !tbaa !51
  %42 = icmp ne ptr %41, null
  br i1 %42, label %43, label %48

43:                                               ; preds = %38
  %44 = load ptr, ptr %3, align 8, !tbaa !19
  %45 = getelementptr inbounds nuw %struct.ossl_store_ctx_st, ptr %44, i32 0, i32 9
  %46 = load ptr, ptr %45, align 8, !tbaa !51
  %47 = call ptr @sk_OSSL_STORE_INFO_shift(ptr noundef %46)
  store ptr %47, ptr %4, align 8, !tbaa !77
  br label %106

48:                                               ; preds = %38
  %49 = load ptr, ptr %3, align 8, !tbaa !19
  %50 = getelementptr inbounds nuw %struct.ossl_store_ctx_st, ptr %49, i32 0, i32 1
  %51 = load ptr, ptr %50, align 8, !tbaa !42
  %52 = icmp ne ptr %51, null
  br i1 %52, label %53, label %80

53:                                               ; preds = %48
  call void @llvm.lifetime.start.p0(i64 16, ptr %6) #8
  %54 = getelementptr inbounds nuw %struct.ossl_load_result_data_st, ptr %6, i32 0, i32 0
  store ptr null, ptr %54, align 8, !tbaa !79
  %55 = load ptr, ptr %3, align 8, !tbaa !19
  %56 = getelementptr inbounds nuw %struct.ossl_load_result_data_st, ptr %6, i32 0, i32 1
  store ptr %55, ptr %56, align 8, !tbaa !81
  %57 = load ptr, ptr %3, align 8, !tbaa !19
  %58 = getelementptr inbounds nuw %struct.ossl_store_ctx_st, ptr %57, i32 0, i32 8
  store i32 0, ptr %58, align 4, !tbaa !82
  %59 = load ptr, ptr %3, align 8, !tbaa !19
  %60 = getelementptr inbounds nuw %struct.ossl_store_ctx_st, ptr %59, i32 0, i32 1
  %61 = load ptr, ptr %60, align 8, !tbaa !42
  %62 = getelementptr inbounds nuw %struct.ossl_store_loader_st, ptr %61, i32 0, i32 21
  %63 = load ptr, ptr %62, align 8, !tbaa !83
  %64 = load ptr, ptr %3, align 8, !tbaa !19
  %65 = getelementptr inbounds nuw %struct.ossl_store_ctx_st, ptr %64, i32 0, i32 2
  %66 = load ptr, ptr %65, align 8, !tbaa !44
  %67 = load ptr, ptr %3, align 8, !tbaa !19
  %68 = getelementptr inbounds nuw %struct.ossl_store_ctx_st, ptr %67, i32 0, i32 10
  %69 = call i32 %63(ptr noundef %66, ptr noundef @ossl_store_handle_load_result, ptr noundef %6, ptr noundef @ossl_pw_passphrase_callback_dec, ptr noundef %68)
  %70 = icmp ne i32 %69, 0
  br i1 %70, label %74, label %71

71:                                               ; preds = %53
  %72 = load ptr, ptr %3, align 8, !tbaa !19
  %73 = getelementptr inbounds nuw %struct.ossl_store_ctx_st, ptr %72, i32 0, i32 8
  store i32 1, ptr %73, align 4, !tbaa !82
  store ptr null, ptr %2, align 8
  store i32 1, ptr %5, align 4
  br label %77

74:                                               ; preds = %53
  %75 = getelementptr inbounds nuw %struct.ossl_load_result_data_st, ptr %6, i32 0, i32 0
  %76 = load ptr, ptr %75, align 8, !tbaa !79
  store ptr %76, ptr %4, align 8, !tbaa !77
  store i32 0, ptr %5, align 4
  br label %77

77:                                               ; preds = %74, %71
  call void @llvm.lifetime.end.p0(i64 16, ptr %6) #8
  %78 = load i32, ptr %5, align 4
  switch i32 %78, label %164 [
    i32 0, label %79
  ]

79:                                               ; preds = %77
  br label %80

80:                                               ; preds = %79, %48
  %81 = load ptr, ptr %3, align 8, !tbaa !19
  %82 = getelementptr inbounds nuw %struct.ossl_store_ctx_st, ptr %81, i32 0, i32 1
  %83 = load ptr, ptr %82, align 8, !tbaa !42
  %84 = icmp eq ptr %83, null
  br i1 %84, label %85, label %105

85:                                               ; preds = %80
  %86 = load ptr, ptr %3, align 8, !tbaa !19
  %87 = getelementptr inbounds nuw %struct.ossl_store_ctx_st, ptr %86, i32 0, i32 0
  %88 = load ptr, ptr %87, align 8, !tbaa !43
  %89 = getelementptr inbounds nuw %struct.ossl_store_loader_st, ptr %88, i32 0, i32 7
  %90 = load ptr, ptr %89, align 8, !tbaa !84
  %91 = load ptr, ptr %3, align 8, !tbaa !19
  %92 = getelementptr inbounds nuw %struct.ossl_store_ctx_st, ptr %91, i32 0, i32 2
  %93 = load ptr, ptr %92, align 8, !tbaa !44
  %94 = load ptr, ptr %3, align 8, !tbaa !19
  %95 = getelementptr inbounds nuw %struct.ossl_store_ctx_st, ptr %94, i32 0, i32 10
  %96 = getelementptr inbounds nuw %struct.ossl_passphrase_data_st, ptr %95, i32 0, i32 1
  %97 = getelementptr inbounds nuw %struct.anon.2, ptr %96, i32 0, i32 0
  %98 = load ptr, ptr %97, align 8, !tbaa !25
  %99 = load ptr, ptr %3, align 8, !tbaa !19
  %100 = getelementptr inbounds nuw %struct.ossl_store_ctx_st, ptr %99, i32 0, i32 10
  %101 = getelementptr inbounds nuw %struct.ossl_passphrase_data_st, ptr %100, i32 0, i32 1
  %102 = getelementptr inbounds nuw %struct.anon.2, ptr %101, i32 0, i32 1
  %103 = load ptr, ptr %102, align 8, !tbaa !25
  %104 = call ptr %90(ptr noundef %93, ptr noundef %98, ptr noundef %103)
  store ptr %104, ptr %4, align 8, !tbaa !77
  br label %105

105:                                              ; preds = %85, %80
  br label %106

106:                                              ; preds = %105, %43
  %107 = load ptr, ptr %3, align 8, !tbaa !19
  %108 = getelementptr inbounds nuw %struct.ossl_store_ctx_st, ptr %107, i32 0, i32 3
  %109 = load ptr, ptr %108, align 8, !tbaa !45
  %110 = icmp ne ptr %109, null
  br i1 %110, label %111, label %127

111:                                              ; preds = %106
  %112 = load ptr, ptr %4, align 8, !tbaa !77
  %113 = icmp ne ptr %112, null
  br i1 %113, label %114, label %127

114:                                              ; preds = %111
  %115 = load ptr, ptr %3, align 8, !tbaa !19
  %116 = getelementptr inbounds nuw %struct.ossl_store_ctx_st, ptr %115, i32 0, i32 3
  %117 = load ptr, ptr %116, align 8, !tbaa !45
  %118 = load ptr, ptr %4, align 8, !tbaa !77
  %119 = load ptr, ptr %3, align 8, !tbaa !19
  %120 = getelementptr inbounds nuw %struct.ossl_store_ctx_st, ptr %119, i32 0, i32 4
  %121 = load ptr, ptr %120, align 8, !tbaa !46
  %122 = call ptr %117(ptr noundef %118, ptr noundef %121)
  store ptr %122, ptr %4, align 8, !tbaa !77
  %123 = load ptr, ptr %4, align 8, !tbaa !77
  %124 = icmp eq ptr %123, null
  br i1 %124, label %125, label %126

125:                                              ; preds = %114
  br label %10

126:                                              ; preds = %114
  br label %127

127:                                              ; preds = %126, %111, %106
  %128 = load ptr, ptr %3, align 8, !tbaa !19
  %129 = getelementptr inbounds nuw %struct.ossl_store_ctx_st, ptr %128, i32 0, i32 10
  call void @ossl_pw_clear_passphrase_cache(ptr noundef %129)
  %130 = load ptr, ptr %4, align 8, !tbaa !77
  %131 = icmp ne ptr %130, null
  br i1 %131, label %132, label %158

132:                                              ; preds = %127
  %133 = load ptr, ptr %3, align 8, !tbaa !19
  %134 = getelementptr inbounds nuw %struct.ossl_store_ctx_st, ptr %133, i32 0, i32 5
  %135 = load i32, ptr %134, align 8, !tbaa !58
  %136 = icmp ne i32 %135, 0
  br i1 %136, label %137, label %158

137:                                              ; preds = %132
  call void @llvm.lifetime.start.p0(i64 4, ptr %7) #8
  %138 = load ptr, ptr %4, align 8, !tbaa !77
  %139 = call i32 @OSSL_STORE_INFO_get_type(ptr noundef %138)
  store i32 %139, ptr %7, align 4, !tbaa !21
  %140 = load i32, ptr %7, align 4, !tbaa !21
  %141 = icmp ne i32 %140, 1
  br i1 %141, label %142, label %154

142:                                              ; preds = %137
  %143 = load i32, ptr %7, align 4, !tbaa !21
  %144 = icmp ne i32 %143, 0
  br i1 %144, label %145, label %154

145:                                              ; preds = %142
  %146 = load ptr, ptr %3, align 8, !tbaa !19
  %147 = getelementptr inbounds nuw %struct.ossl_store_ctx_st, ptr %146, i32 0, i32 5
  %148 = load i32, ptr %147, align 8, !tbaa !58
  %149 = load i32, ptr %7, align 4, !tbaa !21
  %150 = icmp ne i32 %148, %149
  br i1 %150, label %151, label %153

151:                                              ; preds = %145
  %152 = load ptr, ptr %4, align 8, !tbaa !77
  call void @OSSL_STORE_INFO_free(ptr noundef %152)
  store i32 2, ptr %5, align 4
  br label %155

153:                                              ; preds = %145
  br label %154

154:                                              ; preds = %153, %142, %137
  store i32 0, ptr %5, align 4
  br label %155

155:                                              ; preds = %154, %151
  call void @llvm.lifetime.end.p0(i64 4, ptr %7) #8
  %156 = load i32, ptr %5, align 4
  switch i32 %156, label %166 [
    i32 0, label %157
    i32 2, label %10
  ]

157:                                              ; preds = %155
  br label %158

158:                                              ; preds = %157, %132, %127
  %159 = load ptr, ptr %4, align 8, !tbaa !77
  %160 = icmp ne ptr %159, null
  br i1 %160, label %161, label %162

161:                                              ; preds = %158
  br label %162

162:                                              ; preds = %161, %158
  %163 = load ptr, ptr %4, align 8, !tbaa !77
  store ptr %163, ptr %2, align 8
  store i32 1, ptr %5, align 4
  br label %164

164:                                              ; preds = %162, %77, %14
  call void @llvm.lifetime.end.p0(i64 8, ptr %4) #8
  %165 = load ptr, ptr %2, align 8
  ret ptr %165

166:                                              ; preds = %155
  unreachable
}