; Function Attrs: nounwind uwtable
define ptr @OSSL_STORE_load(ptr noundef initializes((56, 60)) %0) local_unnamed_addr #0 {
  %2 = alloca %struct.ossl_load_result_data_st, align 8
  %3 = getelementptr inbounds nuw i8, ptr %0, i64 56
  store i32 1, ptr %3, align 8, !tbaa !44
  %4 = getelementptr inbounds nuw i8, ptr %0, i64 8
  %5 = getelementptr inbounds nuw i8, ptr %0, i64 16
  %6 = getelementptr inbounds nuw i8, ptr %0, i64 64
  %7 = getelementptr inbounds nuw i8, ptr %2, i64 8
  %8 = getelementptr inbounds nuw i8, ptr %0, i64 60
  %9 = getelementptr inbounds nuw i8, ptr %0, i64 72
  %10 = getelementptr inbounds nuw i8, ptr %0, i64 80
  %11 = getelementptr inbounds nuw i8, ptr %0, i64 88
  %12 = getelementptr inbounds nuw i8, ptr %0, i64 24
  %13 = getelementptr inbounds nuw i8, ptr %0, i64 32
  %14 = getelementptr inbounds nuw i8, ptr %0, i64 40
  br label %.backedge

.backedge:                                        ; preds = %.backedge.backedge, %1
  %15 = load ptr, ptr %4, align 8, !tbaa !33
  %.not.i = icmp eq ptr %15, null
  br i1 %.not.i, label %.thread.i, label %16

16:                                               ; preds = %.backedge
  %17 = load ptr, ptr %0, align 8, !tbaa !34
  %18 = getelementptr inbounds nuw i8, ptr %17, i64 176
  %19 = load ptr, ptr %18, align 8, !tbaa !58
  %20 = load ptr, ptr %5, align 8, !tbaa !35
  %21 = call i32 %19(ptr noundef %20) #9
  %.pr.i = load ptr, ptr %4, align 8, !tbaa !33
  %22 = icmp eq ptr %.pr.i, null
  br i1 %22, label %.thread.i, label %OSSL_STORE_eof.exit

.thread.i:                                        ; preds = %16, %.backedge
  %23 = load ptr, ptr %0, align 8, !tbaa !34
  %24 = getelementptr inbounds nuw i8, ptr %23, i64 64
  %25 = load ptr, ptr %24, align 8, !tbaa !59
  %26 = load ptr, ptr %5, align 8, !tbaa !35
  %27 = call i32 %25(ptr noundef %26) #9
  br label %OSSL_STORE_eof.exit

OSSL_STORE_eof.exit:                              ; preds = %16, %.thread.i
  %.1.i = phi i32 [ %27, %.thread.i ], [ %21, %16 ]
  %.not78 = icmp eq i32 %.1.i, 0
  br i1 %.not78, label %28, label %.thread74

28:                                               ; preds = %OSSL_STORE_eof.exit
  %29 = load ptr, ptr %6, align 8, !tbaa !40
  %.not56 = icmp eq ptr %29, null
  br i1 %.not56, label %.thread, label %30

30:                                               ; preds = %28
  %31 = call i32 @OPENSSL_sk_num(ptr noundef nonnull %29) #9
  %32 = icmp eq i32 %31, 0
  %33 = load ptr, ptr %6, align 8, !tbaa !40
  br i1 %32, label %34, label %35

34:                                               ; preds = %30
  call void @OPENSSL_sk_free(ptr noundef %33) #9
  store ptr null, ptr %6, align 8, !tbaa !40
  br label %.thread

35:                                               ; preds = %30
  %.not57 = icmp eq ptr %33, null
  br i1 %.not57, label %.thread, label %36

36:                                               ; preds = %35
  %37 = call ptr @OPENSSL_sk_shift(ptr noundef nonnull %33) #9
  br label %54

.thread:                                          ; preds = %28, %34, %35
  %38 = load ptr, ptr %4, align 8, !tbaa !33
  %.not58 = icmp eq ptr %38, null
  br i1 %.not58, label %.thread67, label %39

39:                                               ; preds = %.thread
  call void @llvm.lifetime.start.p0(i64 16, ptr nonnull %2) #9
  store ptr null, ptr %2, align 8, !tbaa !60
  store ptr %0, ptr %7, align 8, !tbaa !64
  store i32 0, ptr %8, align 4, !tbaa !65
  %40 = getelementptr inbounds nuw i8, ptr %38, i64 168
  %41 = load ptr, ptr %40, align 8, !tbaa !66
  %42 = load ptr, ptr %5, align 8, !tbaa !35
  %43 = call i32 %41(ptr noundef %42, ptr noundef nonnull @ossl_store_handle_load_result, ptr noundef nonnull %2, ptr noundef nonnull @ossl_pw_passphrase_callback_dec, ptr noundef nonnull %9) #9
  %.not59.not = icmp eq i32 %43, 0
  br i1 %.not59.not, label %.thread64, label %44

.thread64:                                        ; preds = %39
  store i32 1, ptr %8, align 4, !tbaa !65
  call void @llvm.lifetime.end.p0(i64 16, ptr nonnull %2) #9
  br label %.thread74

44:                                               ; preds = %39
  %45 = load ptr, ptr %2, align 8, !tbaa !60
  call void @llvm.lifetime.end.p0(i64 16, ptr nonnull %2) #9
  %.pr66 = load ptr, ptr %4, align 8, !tbaa !33
  %46 = icmp eq ptr %.pr66, null
  br i1 %46, label %.thread67, label %54

.thread67:                                        ; preds = %.thread, %44
  %47 = load ptr, ptr %0, align 8, !tbaa !34
  %48 = getelementptr inbounds nuw i8, ptr %47, i64 56
  %49 = load ptr, ptr %48, align 8, !tbaa !67
  %50 = load ptr, ptr %5, align 8, !tbaa !35
  %51 = load ptr, ptr %10, align 8, !tbaa !8
  %52 = load ptr, ptr %11, align 8, !tbaa !8
  %53 = call ptr %49(ptr noundef %50, ptr noundef %51, ptr noundef %52) #9
  br label %54

54:                                               ; preds = %44, %.thread67, %36
  %.146 = phi ptr [ %37, %36 ], [ %53, %.thread67 ], [ %45, %44 ]
  %55 = load ptr, ptr %12, align 8, !tbaa !36
  %56 = icmp ne ptr %55, null
  %57 = icmp ne ptr %.146, null
  %or.cond = select i1 %56, i1 %57, i1 false
  br i1 %or.cond, label %58, label %62

58:                                               ; preds = %54
  %59 = load ptr, ptr %13, align 8, !tbaa !37
  %60 = call ptr %55(ptr noundef nonnull %.146, ptr noundef %59) #9
  %61 = icmp eq ptr %60, null
  br i1 %61, label %.backedge.backedge, label %.thread69

.backedge.backedge:                               ; preds = %58, %67
  br label %.backedge

.thread69:                                        ; preds = %58
  call void @ossl_pw_clear_passphrase_cache(ptr noundef nonnull %9) #9
  br label %63

62:                                               ; preds = %54
  call void @ossl_pw_clear_passphrase_cache(ptr noundef nonnull %9) #9
  %.not60 = icmp eq ptr %.146, null
  br i1 %.not60, label %.thread74, label %63

63:                                               ; preds = %.thread69, %62
  %.44972 = phi ptr [ %60, %.thread69 ], [ %.146, %62 ]
  %64 = load i32, ptr %14, align 8, !tbaa !45
  %.not61 = icmp eq i32 %64, 0
  br i1 %.not61, label %.thread74, label %65

65:                                               ; preds = %63
  %66 = load i32, ptr %.44972, align 8, !tbaa !68
  %or.cond3 = icmp ult i32 %66, 2
  %.not62 = icmp eq i32 %64, %66
  %or.cond77 = or i1 %or.cond3, %.not62
  br i1 %or.cond77, label %.thread74, label %67

67:                                               ; preds = %65
  call void @OSSL_STORE_INFO_free(ptr noundef nonnull %.44972)
  br label %.backedge.backedge

.thread74:                                        ; preds = %65, %62, %63, %OSSL_STORE_eof.exit, %.thread64
  %.1 = phi ptr [ null, %.thread64 ], [ %.44972, %65 ], [ null, %62 ], [ %.44972, %63 ], [ null, %OSSL_STORE_eof.exit ]
  ret ptr %.1
}